; Function Attrs: mustprogress uwtable
define hidden void @_ZN13Z3_solver_ref6set_ehEP13event_handler(ptr noundef nonnull align 8 dereferenceable(128) %0, ptr noundef %1) local_unnamed_addr #3 align 2 personality ptr @__gxx_personality_v0 {
  %3 = getelementptr inbounds nuw i8, ptr %0, i64 80
  %4 = tail call noundef i32 @pthread_mutex_lock(ptr noundef nonnull align 8 dereferenceable(40) %3) #25
  %.not.i.i = icmp eq i32 %4, 0
  br i1 %.not.i.i, label %_ZNSt10lock_guardISt5mutexEC2ERS0_.exit, label %5

5:                                                ; preds = %2
  tail call void @_ZSt20__throw_system_errori(i32 noundef %4) #26
  unreachable

_ZNSt10lock_guardISt5mutexEC2ERS0_.exit:          ; preds = %2
  %6 = getelementptr inbounds nuw i8, ptr %0, i64 120
  store ptr %1, ptr %6, align 8, !tbaa !61
  %7 = tail call noundef i32 @pthread_mutex_unlock(ptr noundef nonnull align 8 dereferenceable(40) %3) #25
  ret void
}